target datalayout = "e-m:e-p270:32:32-p271:32:32-p272:64:64-i64:64-i128:128-f80:128-n8:16:32:64-S128"
target triple = "x86_64-pc-linux-gnu"

%struct.StringInfoData = type { ptr, i32, i32, i32 }
%struct.Subscription = type { i32, i32, i64, ptr, i32, i8, i8, i8, i8, i8, i8, i8, i8, i8, ptr, ptr, ptr, ptr, ptr }

@.str.4 = private unnamed_addr constant [19 x i8] c"subscriptioncmds.c\00", align 1
@.str.86 = private unnamed_addr constant [48 x i8] c"cannot set option \22%s\22 for enabled subscription\00", align 1
@__func__.CheckAlterSubOption = private unnamed_addr constant [20 x i8] c"CheckAlterSubOption\00", align 1
@.str.87 = private unnamed_addr constant [73 x i8] c"cannot set option \22%s\22 for a subscription that does not have a slot name\00", align 1
@.str.88 = private unnamed_addr constant [32 x i8] c"ALTER SUBSCRIPTION ... SET (%s)\00", align 1

; Function Attrs: nounwind uwtable
define internal void @CheckAlterSubOption(ptr noundef %0, ptr noundef %1, i1 noundef zeroext %2, i1 noundef zeroext %3) #0 {
  %5 = alloca ptr, align 8
  %6 = alloca ptr, align 8
  %7 = alloca i8, align 1
  %8 = alloca i8, align 1
  %9 = alloca %struct.StringInfoData, align 8
  store ptr %0, ptr %5, align 8
  store ptr %1, ptr %6, align 8
  %10 = zext i1 %2 to i8
  store i8 %10, ptr %7, align 1
  %11 = zext i1 %3 to i8
  store i8 %11, ptr %8, align 1
  %12 = load ptr, ptr %5, align 8
  %13 = getelementptr inbounds nuw %struct.Subscription, ptr %12, i32 0, i32 6
  %14 = load i8, ptr %13, align 1, !range !4, !noundef !5
  %15 = trunc i8 %14 to i1
  br i1 %15, label %16, label %28

16:                                               ; preds = %4
  br label %17

17:                                               ; preds = %16
  br i1 true, label %18, label %20

18:                                               ; preds = %17
  %19 = call zeroext i1 @errstart_cold(i32 noundef 21, ptr noundef null) #11
  br i1 %19, label %22, label %26

20:                                               ; preds = %17
  %21 = call zeroext i1 @errstart(i32 noundef 21, ptr noundef null)
  br i1 %21, label %22, label %26

22:                                               ; preds = %20, %18
  %23 = call i32 @errcode(i32 noundef 325)
  %24 = load ptr, ptr %6, align 8
  %25 = call i32 (ptr, ...) @errmsg(ptr noundef @.str.86, ptr noundef %24)
  call void @errfinish(ptr noundef @.str.4, i32 noundef 1071, ptr noundef @__func__.CheckAlterSubOption)
  br label %26

26:                                               ; preds = %22, %20, %18
  unreachable

27:                                               ; No predecessors!
  br label %28

28:                                               ; preds = %27, %4
  %29 = load i8, ptr %7, align 1, !range !4, !noundef !5
  %30 = trunc i8 %29 to i1
  br i1 %30, label %31, label %57

31:                                               ; preds = %28
  call void @llvm.lifetime.start.p0(i64 24, ptr %9) #10
  %32 = load ptr, ptr %5, align 8
  %33 = getelementptr inbounds nuw %struct.Subscription, ptr %32, i32 0, i32 15
  %34 = load ptr, ptr %33, align 8
  %35 = icmp ne ptr %34, null
  br i1 %35, label %49, label %36

36:                                               ; preds = %31
  br label %37

37:                                               ; preds = %36
  br i1 true, label %38, label %40

38:                                               ; preds = %37
  %39 = call zeroext i1 @errstart_cold(i32 noundef 21, ptr noundef null) #11
  br i1 %39, label %42, label %46

40:                                               ; preds = %37
  %41 = call zeroext i1 @errstart(i32 noundef 21, ptr noundef null)
  br i1 %41, label %42, label %46

42:                                               ; preds = %40, %38
  %43 = call i32 @errcode(i32 noundef 325)
  %44 = load ptr, ptr %6, align 8
  %45 = call i32 (ptr, ...) @errmsg(ptr noundef @.str.87, ptr noundef %44)
  call void @errfinish(ptr noundef @.str.4, i32 noundef 1085, ptr noundef @__func__.CheckAlterSubOption)
  br label %46

46:                                               ; preds = %42, %40, %38
  unreachable

47:                                               ; No predecessors!
  br label %48

48:                                               ; preds = %47
  br label %49

49:                                               ; preds = %48, %31
  call void @initStringInfo(ptr noundef %9)
  %50 = load ptr, ptr %6, align 8
  call void (ptr, ptr, ...) @appendStringInfo(ptr noundef %9, ptr noundef @.str.88, ptr noundef %50)
  %51 = load i8, ptr %8, align 1, !range !4, !noundef !5
  %52 = trunc i8 %51 to i1
  %53 = getelementptr inbounds nuw %struct.StringInfoData, ptr %9, i32 0, i32 0
  %54 = load ptr, ptr %53, align 8
  call void @PreventInTransactionBlock(i1 noundef zeroext %52, ptr noundef %54)
  %55 = getelementptr inbounds nuw %struct.StringInfoData, ptr %9, i32 0, i32 0
  %56 = load ptr, ptr %55, align 8
  call void @pfree(ptr noundef %56)
  call void @llvm.lifetime.end.p0(i64 24, ptr %9) #10
  br label %57

57:                                               ; preds = %49, %28
  ret void
}