; Function Attrs: nounwind uwtable
define internal fastcc void @CheckAlterSubOption(ptr noundef readonly captures(none) %0, ptr noundef %1, i1 noundef zeroext %2, i1 noundef zeroext %3) unnamed_addr #0 {
  %5 = alloca %struct.StringInfoData, align 8
  %6 = getelementptr inbounds nuw i8, ptr %0, i64 29
  %7 = load i8, ptr %6, align 1, !range !4, !noundef !5
  %8 = trunc nuw i8 %7 to i1
  br i1 %8, label %9, label %13

9:                                                ; preds = %4
  %10 = tail call zeroext i1 @errstart_cold(i32 noundef 21, ptr noundef null) #11
  tail call void @llvm.assume(i1 %10)
  %11 = tail call i32 @errcode(i32 noundef 325) #10
  %12 = tail call i32 (ptr, ...) @errmsg(ptr noundef nonnull @.str.86, ptr noundef %1) #10
  tail call void @errfinish(ptr noundef nonnull @.str.4, i32 noundef 1071, ptr noundef nonnull @__func__.CheckAlterSubOption) #10
  unreachable

13:                                               ; preds = %4
  br i1 %2, label %14, label %24

14:                                               ; preds = %13
  call void @llvm.lifetime.start.p0(i64 24, ptr nonnull %5) #10
  %15 = getelementptr inbounds nuw i8, ptr %0, i64 48
  %16 = load ptr, ptr %15, align 8
  %.not = icmp eq ptr %16, null
  br i1 %.not, label %17, label %21

17:                                               ; preds = %14
  %18 = tail call zeroext i1 @errstart_cold(i32 noundef 21, ptr noundef null) #11
  tail call void @llvm.assume(i1 %18)
  %19 = tail call i32 @errcode(i32 noundef 325) #10
  %20 = tail call i32 (ptr, ...) @errmsg(ptr noundef nonnull @.str.87, ptr noundef %1) #10
  tail call void @errfinish(ptr noundef nonnull @.str.4, i32 noundef 1085, ptr noundef nonnull @__func__.CheckAlterSubOption) #10
  unreachable

21:                                               ; preds = %14
  call void @initStringInfo(ptr noundef nonnull %5) #10
  call void (ptr, ptr, ...) @appendStringInfo(ptr noundef nonnull %5, ptr noundef nonnull @.str.88, ptr noundef %1) #10
  %22 = load ptr, ptr %5, align 8
  call void @PreventInTransactionBlock(i1 noundef zeroext %3, ptr noundef %22) #10
  %23 = load ptr, ptr %5, align 8
  call void @pfree(ptr noundef %23) #10
  call void @llvm.lifetime.end.p0(i64 24, ptr nonnull %5) #10
  br label %24

24:                                               ; preds = %21, %13
  ret void
}